target datalayout = "e-m:e-p270:32:32-p271:32:32-p272:64:64-i64:64-i128:128-f80:128-n8:16:32:64-S128"
target triple = "x86_64-unknown-linux-gnu"

%"struct.std::pair.4" = type <{ ptr, i32, [4 x i8] }>

; Function Attrs: mustprogress nounwind uwtable
define linkonce_odr hidden void @_ZNSt4pairIPKcjEC2IDniTnNSt9enable_ifIXaaclsr5_PCCPE22_MoveConstructiblePairIT_T0_EEclsr5_PCCPE30_ImplicitlyMoveConvertiblePairIS5_S6_EEEbE4typeELb1EEEOS5_OS6_(ptr noundef nonnull align 8 dereferenceable(12) %this, ptr noundef nonnull align 8 dereferenceable(8) %__x, ptr noundef nonnull align 4 dereferenceable(4) %__y) unnamed_addr #5 comdat align 2 {
entry:
  %this.addr = alloca ptr, align 8
  %__x.addr = alloca ptr, align 8
  %__y.addr = alloca ptr, align 8
  store ptr %this, ptr %this.addr, align 8
  store ptr %__x, ptr %__x.addr, align 8
  store ptr %__y, ptr %__y.addr, align 8
  %this1 = load ptr, ptr %this.addr, align 8
  %first = getelementptr inbounds %"struct.std::pair.4", ptr %this1, i32 0, i32 0
  store ptr null, ptr %first, align 8
  %second = getelementptr inbounds %"struct.std::pair.4", ptr %this1, i32 0, i32 1
  %0 = load ptr, ptr %__y.addr, align 8
  %1 = load i32, ptr %0, align 4
  store i32 %1, ptr %second, align 8
  ret void
}

; Function Attrs: mustprogress nounwind uwtable
define linkonce_odr hidden void @_ZNSt4pairIPKcjEC2IS1_RjTnNSt9enable_ifIXaaclsr5_PCCPE22_MoveConstructiblePairIT_T0_EEclsr5_PCCPE30_ImplicitlyMoveConvertiblePairIS6_S7_EEEbE4typeELb1EEEOS6_OS7_(ptr noundef nonnull align 8 dereferenceable(12) %this, ptr noundef nonnull align 8 dereferenceable(8) %__x, ptr noundef nonnull align 4 dereferenceable(4) %__y) unnamed_addr #5 comdat align 2 {
entry:
  %this.addr = alloca ptr, align 8
  %__x.addr = alloca ptr, align 8
  %__y.addr = alloca ptr, align 8
  store ptr %this, ptr %this.addr, align 8
  store ptr %__x, ptr %__x.addr, align 8
  store ptr %__y, ptr %__y.addr, align 8
  %this1 = load ptr, ptr %this.addr, align 8
  %first = getelementptr inbounds %"struct.std::pair.4", ptr %this1, i32 0, i32 0
  %0 = load ptr, ptr %__x.addr, align 8
  %1 = load ptr, ptr %0, align 8
  store ptr %1, ptr %first, align 8
  %second = getelementptr inbounds %"struct.std::pair.4", ptr %this1, i32 0, i32 1
  %2 = load ptr, ptr %__y.addr, align 8
  %3 = load i32, ptr %2, align 4
  store i32 %3, ptr %second, align 8
  ret void
}

; Function Attrs: mustprogress uwtable
define { ptr, i32 } @_ZN6google8protobuf8internal17VarintParseSlow32EPKcj(ptr noundef %p, i32 noundef %res) #4 {
entry:
  %retval = alloca %"struct.std::pair.4", align 8
  %p.addr = alloca ptr, align 8
  %res.addr = alloca i32, align 4
  %i = alloca i32, align 4
  %byte = alloca i32, align 4
  %ref.tmp = alloca ptr, align 8
  %i4 = alloca i32, align 4
  %byte8 = alloca i32, align 4
  %ref.tmp15 = alloca ptr, align 8
  %ref.tmp23 = alloca ptr, align 8
  %ref.tmp24 = alloca i32, align 4
  store ptr %p, ptr %p.addr, align 8
  store i32 %res, ptr %res.addr, align 4
  store i32 1, ptr %i, align 4
  br label %for.cond

for.cond:                                         ; preds = %for.inc, %entry
  %0 = load i32, ptr %i, align 4
  %cmp = icmp ult i32 %0, 5
  br i1 %cmp, label %for.body, label %for.end

for.body:                                         ; preds = %for.cond
  %1 = load ptr, ptr %p.addr, align 8
  %2 = load i32, ptr %i, align 4
  %idxprom = zext i32 %2 to i64
  %arrayidx = getelementptr inbounds i8, ptr %1, i64 %idxprom
  %3 = load i8, ptr %arrayidx, align 1
  %conv = zext i8 %3 to i32
  store i32 %conv, ptr %byte, align 4
  %4 = load i32, ptr %byte, align 4
  %sub = sub i32 %4, 1
  %5 = load i32, ptr %i, align 4
  %mul = mul i32 7, %5
  %shl = shl i32 %sub, %mul
  %6 = load i32, ptr %res.addr, align 4
  %add = add i32 %6, %shl
  store i32 %add, ptr %res.addr, align 4
  %7 = load i32, ptr %byte, align 4
  %cmp1 = icmp ult i32 %7, 128
  br i1 %cmp1, label %if.then, label %if.end

if.then:                                          ; preds = %for.body
  %8 = load ptr, ptr %p.addr, align 8
  %9 = load i32, ptr %i, align 4
  %idx.ext = zext i32 %9 to i64
  %add.ptr = getelementptr inbounds i8, ptr %8, i64 %idx.ext
  %add.ptr3 = getelementptr inbounds i8, ptr %add.ptr, i64 1
  store ptr %add.ptr3, ptr %ref.tmp, align 8
  call void @_ZNSt4pairIPKcjEC2IS1_RjTnNSt9enable_ifIXaaclsr5_PCCPE22_MoveConstructiblePairIT_T0_EEclsr5_PCCPE30_ImplicitlyMoveConvertiblePairIS6_S7_EEEbE4typeELb1EEEOS6_OS7_(ptr noundef nonnull align 8 dereferenceable(12) %retval, ptr noundef nonnull align 8 dereferenceable(8) %ref.tmp, ptr noundef nonnull align 4 dereferenceable(4) %res.addr)
  br label %return

if.end:                                           ; preds = %for.body
  br label %for.inc

for.inc:                                          ; preds = %if.end
  %10 = load i32, ptr %i, align 4
  %inc = add i32 %10, 1
  store i32 %inc, ptr %i, align 4
  br label %for.cond, !llvm.loop !20

for.end:                                          ; preds = %for.cond
  store i32 5, ptr %i4, align 4
  br label %for.cond5

for.cond5:                                        ; preds = %for.inc20, %for.end
  %11 = load i32, ptr %i4, align 4
  %cmp6 = icmp ult i32 %11, 10
  br i1 %cmp6, label %for.body7, label %for.end22

for.body7:                                        ; preds = %for.cond5
  %12 = load ptr, ptr %p.addr, align 8
  %13 = load i32, ptr %i4, align 4
  %idxprom9 = zext i32 %13 to i64
  %arrayidx10 = getelementptr inbounds i8, ptr %12, i64 %idxprom9
  %14 = load i8, ptr %arrayidx10, align 1
  %conv11 = zext i8 %14 to i32
  store i32 %conv11, ptr %byte8, align 4
  %15 = load i32, ptr %byte8, align 4
  %cmp12 = icmp ult i32 %15, 128
  br i1 %cmp12, label %if.then14, label %if.end19

if.then14:                                        ; preds = %for.body7
  %16 = load ptr, ptr %p.addr, align 8
  %17 = load i32, ptr %i4, align 4
  %idx.ext16 = zext i32 %17 to i64
  %add.ptr17 = getelementptr inbounds i8, ptr %16, i64 %idx.ext16
  %add.ptr18 = getelementptr inbounds i8, ptr %add.ptr17, i64 1
  store ptr %add.ptr18, ptr %ref.tmp15, align 8
  call void @_ZNSt4pairIPKcjEC2IS1_RjTnNSt9enable_ifIXaaclsr5_PCCPE22_MoveConstructiblePairIT_T0_EEclsr5_PCCPE30_ImplicitlyMoveConvertiblePairIS6_S7_EEEbE4typeELb1EEEOS6_OS7_(ptr noundef nonnull align 8 dereferenceable(12) %retval, ptr noundef nonnull align 8 dereferenceable(8) %ref.tmp15, ptr noundef nonnull align 4 dereferenceable(4) %res.addr)
  br label %return

if.end19:                                         ; preds = %for.body7
  br label %for.inc20

for.inc20:                                        ; preds = %if.end19
  %18 = load i32, ptr %i4, align 4
  %inc21 = add i32 %18, 1
  store i32 %inc21, ptr %i4, align 4
  br label %for.cond5, !llvm.loop !21

for.end22:                                        ; preds = %for.cond5
  store ptr null, ptr %ref.tmp23, align 8
  store i32 0, ptr %ref.tmp24, align 4
  call void @_ZNSt4pairIPKcjEC2IDniTnNSt9enable_ifIXaaclsr5_PCCPE22_MoveConstructiblePairIT_T0_EEclsr5_PCCPE30_ImplicitlyMoveConvertiblePairIS5_S6_EEEbE4typeELb1EEEOS5_OS6_(ptr noundef nonnull align 8 dereferenceable(12) %retval, ptr noundef nonnull align 8 dereferenceable(8) %ref.tmp23, ptr noundef nonnull align 4 dereferenceable(4) %ref.tmp24)
  br label %return

return:                                           ; preds = %for.end22, %if.then14, %if.then
  %19 = load { ptr, i32 }, ptr %retval, align 8
  ret { ptr, i32 } %19
}