; Function Attrs: mustprogress nofree norecurse nosync nounwind willreturn memory(argmem: read) uwtable
define { ptr, i32 } @_ZN6google8protobuf8internal17VarintParseSlow32EPKcj(ptr noundef %p, i32 noundef %res) local_unnamed_addr #3 {
entry:
  br label %for.body

for.cond:                                         ; preds = %for.body
  %indvars.iv.next = add nuw nsw i64 %indvars.iv, 1
  %exitcond.not = icmp eq i64 %indvars.iv.next, 5
  br i1 %exitcond.not, label %for.body7, label %for.body, !llvm.loop !22

for.body:                                         ; preds = %entry, %for.cond
  %indvars.iv = phi i64 [ 1, %entry ], [ %indvars.iv.next, %for.cond ]
  %res.addr.017 = phi i32 [ %res, %entry ], [ %add, %for.cond ]
  %arrayidx = getelementptr inbounds nuw i8, ptr %p, i64 %indvars.iv
  %0 = load i8, ptr %arrayidx, align 1
  %conv = zext i8 %0 to i32
  %sub = add nsw i32 %conv, -1
  %1 = trunc i64 %indvars.iv to i32
  %2 = mul i32 %1, 7
  %shl = shl i32 %sub, %2
  %add = add i32 %shl, %res.addr.017
  %cmp1 = icmp sgt i8 %0, -1
  br i1 %cmp1, label %if.then, label %for.cond

if.then:                                          ; preds = %for.body
  %arrayidx.le = getelementptr inbounds nuw i8, ptr %p, i64 %indvars.iv
  %add.ptr3 = getelementptr inbounds nuw i8, ptr %arrayidx.le, i64 1
  br label %return

for.cond5:                                        ; preds = %for.body7
  %indvars.iv.next26 = add nuw nsw i64 %indvars.iv25, 1
  %exitcond28.not = icmp eq i64 %indvars.iv.next26, 10
  br i1 %exitcond28.not, label %return, label %for.body7, !llvm.loop !23

for.body7:                                        ; preds = %for.cond, %for.cond5
  %indvars.iv25 = phi i64 [ %indvars.iv.next26, %for.cond5 ], [ 5, %for.cond ]
  %arrayidx10 = getelementptr inbounds nuw i8, ptr %p, i64 %indvars.iv25
  %3 = load i8, ptr %arrayidx10, align 1
  %cmp12 = icmp sgt i8 %3, -1
  br i1 %cmp12, label %if.then14, label %for.cond5

if.then14:                                        ; preds = %for.body7
  %arrayidx10.le = getelementptr inbounds nuw i8, ptr %p, i64 %indvars.iv25
  %add.ptr18 = getelementptr inbounds nuw i8, ptr %arrayidx10.le, i64 1
  br label %return

return:                                           ; preds = %for.cond5, %if.then14, %if.then
  %retval.sroa.0.0 = phi ptr [ %add.ptr3, %if.then ], [ %add.ptr18, %if.then14 ], [ null, %for.cond5 ]
  %retval.sroa.4.0 = phi i32 [ %add, %if.then ], [ %add, %if.then14 ], [ 0, %for.cond5 ]
  %.fca.0.insert = insertvalue { ptr, i32 } poison, ptr %retval.sroa.0.0, 0
  %.fca.1.insert = insertvalue { ptr, i32 } %.fca.0.insert, i32 %retval.sroa.4.0, 1
  ret { ptr, i32 } %.fca.1.insert
}